target datalayout = "e-m:e-p270:32:32-p271:32:32-p272:64:64-i64:64-i128:128-f80:128-n8:16:32:64-S128"
target triple = "x86_64-pc-linux-gnu"

%class.rational = type { %class.mpq }
%class.mpq = type { %class.mpz, %class.mpz }
%class.mpz = type { i32, i8, ptr }
%"class.nla::grobner" = type { %"struct.nla::common", %"class.dd::pdd_manager", %"class.dd::solver", ptr, %class.indexed_uint_set, i32, i32, i32, i8, %"class.std::unordered_map.35" }
%"struct.nla::common" = type { ptr, %"class.nla::nex_creator" }
%"class.nla::nex_creator" = type { %class.ptr_vector, %"class.std::unordered_map", %"class.std::unordered_map.2", %class.svector, %"class.nla::nex_creator::mul_factory" }
%class.ptr_vector = type { %class.vector }
%class.vector = type { ptr }
%"class.std::unordered_map" = type { %"class.std::_Hashtable" }
%"class.std::_Hashtable" = type { ptr, i64, %"struct.std::__detail::_Hash_node_base", i64, %"struct.std::__detail::_Prime_rehash_policy", ptr }
%"struct.std::__detail::_Hash_node_base" = type { ptr }
%"struct.std::__detail::_Prime_rehash_policy" = type { float, i64 }
%"class.std::unordered_map.2" = type { %"class.std::_Hashtable.3" }
%"class.std::_Hashtable.3" = type { ptr, i64, %"struct.std::__detail::_Hash_node_base", i64, %"struct.std::__detail::_Prime_rehash_policy", ptr }
%class.svector = type { %class.vector.16 }
%class.vector.16 = type { ptr }
%"class.nla::nex_creator::mul_factory" = type { ptr, %class.rational, %class.vector.17 }
%class.vector.17 = type { ptr }
%"class.dd::pdd_manager" = type { %class.svector.18, %class.vector.20, %class.ptr_hashtable, %class.hashtable, %class.hashtable.23, %class.map, %class.svector, ptr, %class.svector, %class.svector, %class.svector, %class.svector, %class.small_object_allocator, %class.svector, i32, %class.svector, %class.svector, %class.svector.29, i8, i8, i32, i32, %class.svector, %class.svector, %class.rational, %class.rational, i32, %class.rational, %class.svector, i32, %class.svector, %class.svector, %class.rational, %class.rational }
%class.svector.18 = type { %class.vector.19 }
%class.vector.19 = type { ptr }
%class.vector.20 = type { ptr }
%class.ptr_hashtable = type { %class.core_hashtable.base, [4 x i8] }
%class.core_hashtable.base = type <{ ptr, i32, i32, i32 }>
%class.hashtable = type { %class.core_hashtable.base.22, [4 x i8] }
%class.core_hashtable.base.22 = type <{ ptr, i32, i32, i32 }>
%class.hashtable.23 = type { %class.core_hashtable.base.25, [4 x i8] }
%class.core_hashtable.base.25 = type <{ ptr, i32, i32, i32 }>
%class.map = type { %class.table2map }
%class.table2map = type { %class.core_hashtable.27 }
%class.core_hashtable.27 = type <{ ptr, i32, i32, i32, [4 x i8] }>
%class.small_object_allocator = type { [32 x ptr], [32 x ptr], i64 }
%class.svector.29 = type { %class.vector.30 }
%class.vector.30 = type { ptr }
%"class.dd::solver" = type { ptr, ptr, ptr, %"class.dd::solver::stats", %"struct.dd::solver::config", %"class.std::function", %class.ptr_vector.32, %class.ptr_vector.32, %class.ptr_vector.32, %class.vector.34, %class.ptr_vector.32, ptr, i8, i32, %class.svector, %class.svector }
%"class.dd::solver::stats" = type <{ i32, [4 x i8], double, i32, i32, i32, [4 x i8] }>
%"struct.dd::solver::config" = type { i32, i32, i32, i32, i32, i32, i8, i32, i32, i32, i32 }
%"class.std::function" = type { %"class.std::_Function_base", ptr }
%"class.std::_Function_base" = type { %"union.std::_Any_data", ptr }
%"union.std::_Any_data" = type { %"union.std::_Nocopy_types" }
%"union.std::_Nocopy_types" = type { { i64, i64 } }
%class.vector.34 = type { ptr }
%class.ptr_vector.32 = type { %class.vector.33 }
%class.vector.33 = type { ptr }
%class.indexed_uint_set = type { i32, %class.svector, %class.svector }
%"class.std::unordered_map.35" = type { %"class.std::_Hashtable.36" }
%"class.std::_Hashtable.36" = type { ptr, i64, %"struct.std::__detail::_Hash_node_base", i64, %"struct.std::__detail::_Prime_rehash_policy", ptr }
%class.flet = type <{ ptr, i8, [7 x i8] }>

@_ZTIN2dd11pdd_manager7mem_outE = linkonce_odr hidden constant { ptr, ptr } { ptr getelementptr inbounds (ptr, ptr @_ZTVN10__cxxabiv117__class_type_infoE, i64 2), ptr @_ZTSN2dd11pdd_manager7mem_outE }, comdat, align 8

; Function Attrs: mustprogress nounwind uwtable
define linkonce_odr hidden void @_ZN4fletIbED2Ev(ptr noundef nonnull align 8 dereferenceable(9) %0) unnamed_addr #4 comdat align 2 {
  %2 = alloca ptr, align 8
  store ptr %0, ptr %2, align 8, !tbaa !243
  %3 = load ptr, ptr %2, align 8
  %4 = getelementptr inbounds nuw %class.flet, ptr %3, i32 0, i32 1
  %5 = load i8, ptr %4, align 8, !tbaa !246, !range !12, !noundef !13
  %6 = trunc i8 %5 to i1
  %7 = getelementptr inbounds nuw %class.flet, ptr %3, i32 0, i32 0
  %8 = load ptr, ptr %7, align 8, !tbaa !248
  %9 = zext i1 %6 to i8
  store i8 %9, ptr %8, align 1, !tbaa !10
  ret void
}

; Function Attrs: mustprogress nounwind uwtable
define linkonce_odr hidden void @_ZN4fletIbEC2ERbRKb(ptr noundef nonnull align 8 dereferenceable(9) %0, ptr noundef nonnull align 1 dereferenceable(1) %1, ptr noundef nonnull align 1 dereferenceable(1) %2) unnamed_addr #4 comdat align 2 {
  %4 = alloca ptr, align 8
  %5 = alloca ptr, align 8
  %6 = alloca ptr, align 8
  store ptr %0, ptr %4, align 8, !tbaa !243
  store ptr %1, ptr %5, align 8, !tbaa !245
  store ptr %2, ptr %6, align 8, !tbaa !245
  %7 = load ptr, ptr %4, align 8
  %8 = getelementptr inbounds nuw %class.flet, ptr %7, i32 0, i32 0
  %9 = load ptr, ptr %5, align 8, !tbaa !245
  store ptr %9, ptr %8, align 8, !tbaa !245
  %10 = getelementptr inbounds nuw %class.flet, ptr %7, i32 0, i32 1
  %11 = load ptr, ptr %5, align 8, !tbaa !245
  %12 = load i8, ptr %11, align 1, !tbaa !10, !range !12, !noundef !13
  %13 = trunc i8 %12 to i1
  %14 = zext i1 %13 to i8
  store i8 %14, ptr %10, align 8, !tbaa !246
  %15 = load ptr, ptr %6, align 8, !tbaa !245
  %16 = load i8, ptr %15, align 1, !tbaa !10, !range !12, !noundef !13
  %17 = trunc i8 %16 to i1
  %18 = getelementptr inbounds nuw %class.flet, ptr %7, i32 0, i32 0
  %19 = load ptr, ptr %18, align 8, !tbaa !248
  %20 = zext i1 %17 to i8
  store i8 %20, ptr %19, align 1, !tbaa !10
  ret void
}

; Function Attrs: mustprogress uwtable
define hidden noundef nonnull align 8 dereferenceable(8) ptr @_ZN3nla7grobner14core_equationsEb(ptr noundef nonnull align 8 dereferenceable(1448) %0, i1 noundef zeroext %1) #6 align 2 personality ptr @__gxx_personality_v0 {
  %3 = alloca ptr, align 8
  %4 = alloca i8, align 1
  %5 = alloca %class.flet, align 8
  %6 = alloca ptr, align 8
  %7 = alloca i32, align 4
  store ptr %0, ptr %3, align 8, !tbaa !16
  %8 = zext i1 %1 to i8
  store i8 %8, ptr %4, align 1, !tbaa !10
  %9 = load ptr, ptr %3, align 8
  call void @llvm.lifetime.start.p0(i64 16, ptr %5) #3
  %10 = getelementptr inbounds nuw %"class.nla::grobner", ptr %9, i32 0, i32 8
  call void @_ZN4fletIbEC2ERbRKb(ptr noundef nonnull align 8 dereferenceable(9) %5, ptr noundef nonnull align 1 dereferenceable(1) %10, ptr noundef nonnull align 1 dereferenceable(1) %4)
  invoke void @_ZN3nla7grobner15find_nl_clusterEv(ptr noundef nonnull align 8 dereferenceable(1448) %9)
          to label %11 unwind label %16

11:                                               ; preds = %2
  %12 = invoke noundef zeroext i1 @_ZN3nla7grobner9configureEv(ptr noundef nonnull align 8 dereferenceable(1448) %9)
          to label %13 unwind label %16

13:                                               ; preds = %11
  br i1 %12, label %20, label %14

14:                                               ; preds = %13
  %15 = call ptr @__cxa_allocate_exception(i64 1) #3
  invoke void @__cxa_throw(ptr %15, ptr @_ZTIN2dd11pdd_manager7mem_outE, ptr null) #23
          to label %29 unwind label %16

16:                                               ; preds = %20, %14, %11, %2
  %17 = landingpad { ptr, i32 }
          cleanup
  %18 = extractvalue { ptr, i32 } %17, 0
  store ptr %18, ptr %6, align 8
  %19 = extractvalue { ptr, i32 } %17, 1
  store i32 %19, ptr %7, align 4
  call void @_ZN4fletIbED2Ev(ptr noundef nonnull align 8 dereferenceable(9) %5) #3
  call void @llvm.lifetime.end.p0(i64 16, ptr %5) #3
  br label %24

20:                                               ; preds = %13
  %21 = getelementptr inbounds nuw %"class.nla::grobner", ptr %9, i32 0, i32 2
  %22 = invoke noundef nonnull align 8 dereferenceable(8) ptr @_ZN2dd6solver9equationsEv(ptr noundef nonnull align 8 dereferenceable(208) %21)
          to label %23 unwind label %16

23:                                               ; preds = %20
  call void @_ZN4fletIbED2Ev(ptr noundef nonnull align 8 dereferenceable(9) %5) #3
  call void @llvm.lifetime.end.p0(i64 16, ptr %5) #3
  ret ptr %22

24:                                               ; preds = %16
  %25 = load ptr, ptr %6, align 8
  %26 = load i32, ptr %7, align 4
  %27 = insertvalue { ptr, i32 } poison, ptr %25, 0
  %28 = insertvalue { ptr, i32 } %27, i32 %26, 1
  resume { ptr, i32 } %28

29:                                               ; preds = %14
  unreachable
}