; Function Attrs: mustprogress uwtable
define hidden noundef nonnull align 8 dereferenceable(8) ptr @_ZN3nla7grobner14core_equationsEb(ptr noundef nonnull align 8 dereferenceable(1448) initializes((1352, 1356)) %0, i1 noundef zeroext %1) local_unnamed_addr #4 align 2 personality ptr @__gxx_personality_v0 {
  %3 = zext i1 %1 to i8
  %4 = getelementptr inbounds nuw i8, ptr %0, i64 1388
  %5 = load i8, ptr %4, align 4, !tbaa !215, !range !276, !noundef !277
  store i8 %3, ptr %4, align 4, !tbaa !215
  invoke void @_ZN3nla7grobner15find_nl_clusterEv(ptr noundef nonnull align 8 dereferenceable(1448) %0)
          to label %6 unwind label %11

6:                                                ; preds = %2
  %7 = invoke noundef zeroext i1 @_ZN3nla7grobner9configureEv(ptr noundef nonnull align 8 dereferenceable(1448) %0)
          to label %8 unwind label %11

8:                                                ; preds = %6
  br i1 %7, label %13, label %9

9:                                                ; preds = %8
  %10 = tail call ptr @__cxa_allocate_exception(i64 1) #26
  invoke void @__cxa_throw(ptr %10, ptr nonnull @_ZTIN2dd11pdd_manager7mem_outE, ptr null) #29
          to label %17 unwind label %11

11:                                               ; preds = %13, %9, %6, %2
  %12 = landingpad { ptr, i32 }
          cleanup
  store i8 %5, ptr %4, align 4, !tbaa !215
  resume { ptr, i32 } %12

13:                                               ; preds = %8
  %14 = getelementptr inbounds nuw i8, ptr %0, i64 1136
  %15 = invoke noundef nonnull align 8 dereferenceable(8) ptr @_ZN2dd6solver9equationsEv(ptr noundef nonnull align 8 dereferenceable(208) %14)
          to label %16 unwind label %11

16:                                               ; preds = %13
  store i8 %5, ptr %4, align 4, !tbaa !215
  ret ptr %15

17:                                               ; preds = %9
  unreachable
}